target datalayout = "e-m:e-p270:32:32-p271:32:32-p272:64:64-i64:64-i128:128-f80:128-n8:16:32:64-S128"
target triple = "x86_64-pc-linux-gnu"

%"class.cv::Mat" = type { i32, i32, i32, i32, ptr, ptr, ptr, ptr, ptr, ptr, %"struct.cv::MatSize", %"struct.cv::MatStep" }
%"struct.cv::MatSize" = type { ptr }
%"struct.cv::MatStep" = type { ptr, [2 x i64] }
%"class.cv::rgbd::RgbdOdometry" = type { %"class.cv::rgbd::Odometry", double, double, double, %"class.cv::Mat", %"class.cv::Mat", double, %"class.cv::Mat", i32, double, double }
%"class.cv::rgbd::Odometry" = type { %"class.cv::Algorithm" }
%"class.cv::Algorithm" = type { ptr }

; Function Attrs: inlinehint mustprogress nounwind uwtable
define linkonce_odr hidden noundef float @_ZN2cv4rgbd8Odometry20DEFAULT_MAX_ROTATIONEv() #11 comdat align 2 {
  ret float 1.500000e+01
}

; Function Attrs: inlinehint mustprogress nounwind uwtable
define linkonce_odr hidden noundef float @_ZN2cv4rgbd8Odometry23DEFAULT_MAX_TRANSLATIONEv() #11 comdat align 2 {
  ret float 0x3FC3333340000000
}

; Function Attrs: inlinehint mustprogress nounwind uwtable
define linkonce_odr hidden noundef float @_ZN2cv4rgbd8Odometry23DEFAULT_MAX_POINTS_PARTEv() #11 comdat align 2 {
  ret float 0x3FB1EB8520000000
}

; Function Attrs: inlinehint mustprogress nounwind uwtable
define linkonce_odr hidden noundef float @_ZN2cv4rgbd8Odometry22DEFAULT_MAX_DEPTH_DIFFEv() #11 comdat align 2 {
  ret float 0x3FB1EB8520000000
}

; Function Attrs: inlinehint mustprogress nounwind uwtable
define linkonce_odr hidden noundef float @_ZN2cv4rgbd8Odometry17DEFAULT_MAX_DEPTHEv() #11 comdat align 2 {
  ret float 4.000000e+00
}

; Function Attrs: inlinehint mustprogress nounwind uwtable
define linkonce_odr hidden noundef float @_ZN2cv4rgbd8Odometry17DEFAULT_MIN_DEPTHEv() #11 comdat align 2 {
  ret float 0.000000e+00
}

; Function Attrs: inlinehint mustprogress uwtable
define linkonce_odr hidden void @_ZN2cv4rgbd8OdometryC2Ev(ptr noundef nonnull align 8 dereferenceable(8) %0) unnamed_addr #4 comdat align 2 {
  %2 = alloca ptr, align 8
  store ptr %0, ptr %2, align 8, !tbaa !37
  %3 = load ptr, ptr %2, align 8
  call void @_ZN2cv9AlgorithmC2Ev(ptr noundef nonnull align 8 dereferenceable(8) %3)
  store ptr getelementptr inbounds inrange(-16, 120) ({ [17 x ptr] }, ptr @_ZTVN2cv4rgbd8OdometryE, i32 0, i32 0, i32 2), ptr %3, align 8, !tbaa !18
  ret void
}

; Function Attrs: mustprogress uwtable
define void @_ZN2cv4rgbd12RgbdOdometryC2Ev(ptr noundef nonnull align 8 dereferenceable(352) %0) unnamed_addr #6 align 2 personality ptr @__gxx_personality_v0 {
  %2 = alloca ptr, align 8
  %3 = alloca ptr, align 8
  %4 = alloca i32, align 4
  store ptr %0, ptr %2, align 8, !tbaa !69
  %5 = load ptr, ptr %2, align 8
  call void @_ZN2cv4rgbd8OdometryC2Ev(ptr noundef nonnull align 8 dereferenceable(8) %5)
  store ptr getelementptr inbounds inrange(-16, 120) ({ [17 x ptr] }, ptr @_ZTVN2cv4rgbd12RgbdOdometryE, i32 0, i32 0, i32 2), ptr %5, align 8, !tbaa !18
  %6 = getelementptr inbounds nuw %"class.cv::rgbd::RgbdOdometry", ptr %5, i32 0, i32 1
  %7 = invoke noundef float @_ZN2cv4rgbd8Odometry17DEFAULT_MIN_DEPTHEv()
          to label %8 unwind label %38

8:                                                ; preds = %1
  %9 = fpext float %7 to double
  store double %9, ptr %6, align 8, !tbaa !71
  %10 = getelementptr inbounds nuw %"class.cv::rgbd::RgbdOdometry", ptr %5, i32 0, i32 2
  %11 = invoke noundef float @_ZN2cv4rgbd8Odometry17DEFAULT_MAX_DEPTHEv()
          to label %12 unwind label %38

12:                                               ; preds = %8
  %13 = fpext float %11 to double
  store double %13, ptr %10, align 8, !tbaa !76
  %14 = getelementptr inbounds nuw %"class.cv::rgbd::RgbdOdometry", ptr %5, i32 0, i32 3
  %15 = invoke noundef float @_ZN2cv4rgbd8Odometry22DEFAULT_MAX_DEPTH_DIFFEv()
          to label %16 unwind label %38

16:                                               ; preds = %12
  %17 = fpext float %15 to double
  store double %17, ptr %14, align 8, !tbaa !77
  %18 = getelementptr inbounds nuw %"class.cv::rgbd::RgbdOdometry", ptr %5, i32 0, i32 4
  call void @_ZN2cv3MatC1Ev(ptr noundef nonnull align 8 dereferenceable(96) %18) #3
  %19 = getelementptr inbounds nuw %"class.cv::rgbd::RgbdOdometry", ptr %5, i32 0, i32 5
  call void @_ZN2cv3MatC1Ev(ptr noundef nonnull align 8 dereferenceable(96) %19) #3
  %20 = getelementptr inbounds nuw %"class.cv::rgbd::RgbdOdometry", ptr %5, i32 0, i32 6
  %21 = invoke noundef float @_ZN2cv4rgbd8Odometry23DEFAULT_MAX_POINTS_PARTEv()
          to label %22 unwind label %42

22:                                               ; preds = %16
  %23 = fpext float %21 to double
  store double %23, ptr %20, align 8, !tbaa !78
  %24 = getelementptr inbounds nuw %"class.cv::rgbd::RgbdOdometry", ptr %5, i32 0, i32 7
  call void @_ZN2cv3MatC1Ev(ptr noundef nonnull align 8 dereferenceable(96) %24) #3
  %25 = getelementptr inbounds nuw %"class.cv::rgbd::RgbdOdometry", ptr %5, i32 0, i32 8
  store i32 4, ptr %25, align 8, !tbaa !79
  %26 = getelementptr inbounds nuw %"class.cv::rgbd::RgbdOdometry", ptr %5, i32 0, i32 9
  %27 = invoke noundef float @_ZN2cv4rgbd8Odometry23DEFAULT_MAX_TRANSLATIONEv()
          to label %28 unwind label %46

28:                                               ; preds = %22
  %29 = fpext float %27 to double
  store double %29, ptr %26, align 8, !tbaa !80
  %30 = getelementptr inbounds nuw %"class.cv::rgbd::RgbdOdometry", ptr %5, i32 0, i32 10
  %31 = invoke noundef float @_ZN2cv4rgbd8Odometry20DEFAULT_MAX_ROTATIONEv()
          to label %32 unwind label %46

32:                                               ; preds = %28
  %33 = fpext float %31 to double
  store double %33, ptr %30, align 8, !tbaa !81
  %34 = getelementptr inbounds nuw %"class.cv::rgbd::RgbdOdometry", ptr %5, i32 0, i32 4
  invoke void @_ZN2cv4rgbdL20setDefaultIterCountsERNS_3MatE(ptr noundef nonnull align 8 dereferenceable(96) %34)
          to label %35 unwind label %46

35:                                               ; preds = %32
  %36 = getelementptr inbounds nuw %"class.cv::rgbd::RgbdOdometry", ptr %5, i32 0, i32 5
  invoke void @_ZN2cv4rgbdL31setDefaultMinGradientMagnitudesERNS_3MatE(ptr noundef nonnull align 8 dereferenceable(96) %36)
          to label %37 unwind label %46

37:                                               ; preds = %35
  ret void

38:                                               ; preds = %12, %8, %1
  %39 = landingpad { ptr, i32 }
          cleanup
  %40 = extractvalue { ptr, i32 } %39, 0
  store ptr %40, ptr %3, align 8
  %41 = extractvalue { ptr, i32 } %39, 1
  store i32 %41, ptr %4, align 4
  br label %51

42:                                               ; preds = %16
  %43 = landingpad { ptr, i32 }
          cleanup
  %44 = extractvalue { ptr, i32 } %43, 0
  store ptr %44, ptr %3, align 8
  %45 = extractvalue { ptr, i32 } %43, 1
  store i32 %45, ptr %4, align 4
  br label %50

46:                                               ; preds = %35, %32, %28, %22
  %47 = landingpad { ptr, i32 }
          cleanup
  %48 = extractvalue { ptr, i32 } %47, 0
  store ptr %48, ptr %3, align 8
  %49 = extractvalue { ptr, i32 } %47, 1
  store i32 %49, ptr %4, align 4
  call void @_ZN2cv3MatD1Ev(ptr noundef nonnull align 8 dereferenceable(96) %24) #3
  br label %50

50:                                               ; preds = %46, %42
  call void @_ZN2cv3MatD1Ev(ptr noundef nonnull align 8 dereferenceable(96) %19) #3
  call void @_ZN2cv3MatD1Ev(ptr noundef nonnull align 8 dereferenceable(96) %18) #3
  br label %51

51:                                               ; preds = %50, %38
  call void @_ZN2cv9AlgorithmD2Ev(ptr noundef nonnull align 8 dereferenceable(8) %5) #3
  br label %52

52:                                               ; preds = %51
  %53 = load ptr, ptr %3, align 8
  %54 = load i32, ptr %4, align 4
  %55 = insertvalue { ptr, i32 } poison, ptr %53, 0
  %56 = insertvalue { ptr, i32 } %55, i32 %54, 1
  resume { ptr, i32 } %56
}