; Function Attrs: mustprogress uwtable
define void @_ZN2cv4rgbd12RgbdOdometryC2Ev(ptr noundef nonnull align 8 dereferenceable(352) %0) unnamed_addr #4 align 2 personality ptr @__gxx_personality_v0 {
  tail call void @_ZN2cv9AlgorithmC2Ev(ptr noundef nonnull align 8 dereferenceable(8) %0)
  store ptr getelementptr inbounds nuw inrange(-16, 120) (i8, ptr @_ZTVN2cv4rgbd12RgbdOdometryE, i64 16), ptr %0, align 8, !tbaa !15
  %2 = getelementptr inbounds nuw i8, ptr %0, i64 8
  store double 0.000000e+00, ptr %2, align 8, !tbaa !101
  %3 = getelementptr inbounds nuw i8, ptr %0, i64 16
  store double 4.000000e+00, ptr %3, align 8, !tbaa !106
  %4 = getelementptr inbounds nuw i8, ptr %0, i64 24
  store double 0x3FB1EB8520000000, ptr %4, align 8, !tbaa !107
  %5 = getelementptr inbounds nuw i8, ptr %0, i64 32
  tail call void @_ZN2cv3MatC1Ev(ptr noundef nonnull align 8 dereferenceable(96) %5) #31
  %6 = getelementptr inbounds nuw i8, ptr %0, i64 128
  tail call void @_ZN2cv3MatC1Ev(ptr noundef nonnull align 8 dereferenceable(96) %6) #31
  %7 = getelementptr inbounds nuw i8, ptr %0, i64 224
  store double 0x3FB1EB8520000000, ptr %7, align 8, !tbaa !108
  %8 = getelementptr inbounds nuw i8, ptr %0, i64 232
  tail call void @_ZN2cv3MatC1Ev(ptr noundef nonnull align 8 dereferenceable(96) %8) #31
  %9 = getelementptr inbounds nuw i8, ptr %0, i64 328
  store i32 4, ptr %9, align 8, !tbaa !109
  %10 = getelementptr inbounds nuw i8, ptr %0, i64 336
  store double 0x3FC3333340000000, ptr %10, align 8, !tbaa !110
  %11 = getelementptr inbounds nuw i8, ptr %0, i64 344
  store double 1.500000e+01, ptr %11, align 8, !tbaa !111
  invoke fastcc void @_ZN2cv4rgbdL20setDefaultIterCountsERNS_3MatE(ptr noundef nonnull align 8 dereferenceable(96) %5)
          to label %12 unwind label %14

12:                                               ; preds = %1
  invoke fastcc void @_ZN2cv4rgbdL31setDefaultMinGradientMagnitudesERNS_3MatE(ptr noundef nonnull align 8 dereferenceable(96) %6)
          to label %13 unwind label %14

13:                                               ; preds = %12
  ret void

14:                                               ; preds = %12, %1
  %15 = landingpad { ptr, i32 }
          cleanup
  tail call void @_ZN2cv3MatD1Ev(ptr noundef nonnull align 8 dereferenceable(96) %8) #31
  tail call void @_ZN2cv3MatD1Ev(ptr noundef nonnull align 8 dereferenceable(96) %6) #31
  tail call void @_ZN2cv3MatD1Ev(ptr noundef nonnull align 8 dereferenceable(96) %5) #31
  tail call void @_ZN2cv9AlgorithmD2Ev(ptr noundef nonnull align 8 dereferenceable(8) %0) #31
  resume { ptr, i32 } %15
}